target datalayout = "e-m:e-p270:32:32-p271:32:32-p272:64:64-i64:64-i128:128-f80:128-n8:16:32:64-S128"
target triple = "x86_64-pc-linux-gnu"

%struct.AVFilterContext = type { ptr, ptr, ptr, ptr, ptr, i32, ptr, ptr, i32, ptr, ptr, i32, i32, ptr, ptr, ptr, ptr, i32, ptr, i32, i32 }
%struct.TiltandshiftContext = type { ptr, i32, i32, i32, i32, i32, i32, [4 x ptr], [4 x i32], i64, ptr, ptr, ptr }
%struct.AVFilterLink = type { ptr, ptr, ptr, ptr, i32, i32, i32, i32, %struct.AVRational, i32, i32, i32, %struct.AVChannelLayout, %struct.AVRational, ptr, i32, %struct.AVFilterFormatsConfig, %struct.AVFilterFormatsConfig }
%struct.AVChannelLayout = type { i32, i32, %union.anon.1, ptr }
%union.anon.1 = type { i64 }
%struct.AVRational = type { i32, i32 }
%struct.AVFilterFormatsConfig = type { ptr, ptr, ptr, ptr, ptr }
%struct.AVPixFmtDescriptor = type { ptr, i8, i8, i8, i64, [4 x %struct.AVComponentDescriptor], ptr }
%struct.AVComponentDescriptor = type { i32, i32, i32, i32, i32 }

@__const.config_props.black_data = private unnamed_addr constant [4 x i8] c"\10\80\80\10", align 1
@.str.6 = private unnamed_addr constant [30 x i8] c"Padding buffers initialized.\0A\00", align 1

; Function Attrs: nounwind uwtable
define internal i32 @config_props(ptr noundef %0) #1 {
  %2 = alloca i32, align 4
  %3 = alloca ptr, align 8
  %4 = alloca ptr, align 8
  %5 = alloca ptr, align 8
  %6 = alloca i32, align 4
  %7 = alloca i32, align 4
  %8 = alloca i32, align 4
  %9 = alloca [4 x i8], align 1
  %10 = alloca ptr, align 8
  %11 = alloca i32, align 4
  store ptr %0, ptr %3, align 8, !tbaa !31
  call void @llvm.lifetime.start.p0(i64 8, ptr %4) #6
  %12 = load ptr, ptr %3, align 8, !tbaa !31
  %13 = getelementptr inbounds nuw %struct.AVFilterLink, ptr %12, i32 0, i32 0
  %14 = load ptr, ptr %13, align 8, !tbaa !43
  store ptr %14, ptr %4, align 8, !tbaa !4
  call void @llvm.lifetime.start.p0(i64 8, ptr %5) #6
  %15 = load ptr, ptr %4, align 8, !tbaa !4
  %16 = getelementptr inbounds nuw %struct.AVFilterContext, ptr %15, i32 0, i32 9
  %17 = load ptr, ptr %16, align 8, !tbaa !9
  store ptr %17, ptr %5, align 8, !tbaa !22
  %18 = load ptr, ptr %4, align 8, !tbaa !4
  %19 = getelementptr inbounds nuw %struct.AVFilterContext, ptr %18, i32 0, i32 4
  %20 = load ptr, ptr %19, align 8, !tbaa !73
  %21 = getelementptr inbounds ptr, ptr %20, i64 0
  %22 = load ptr, ptr %21, align 8, !tbaa !31
  %23 = getelementptr inbounds nuw %struct.AVFilterLink, ptr %22, i32 0, i32 6
  %24 = load i32, ptr %23, align 8, !tbaa !47
  %25 = load ptr, ptr %3, align 8, !tbaa !31
  %26 = getelementptr inbounds nuw %struct.AVFilterLink, ptr %25, i32 0, i32 6
  store i32 %24, ptr %26, align 8, !tbaa !47
  %27 = load ptr, ptr %4, align 8, !tbaa !4
  %28 = getelementptr inbounds nuw %struct.AVFilterContext, ptr %27, i32 0, i32 4
  %29 = load ptr, ptr %28, align 8, !tbaa !73
  %30 = getelementptr inbounds ptr, ptr %29, i64 0
  %31 = load ptr, ptr %30, align 8, !tbaa !31
  %32 = getelementptr inbounds nuw %struct.AVFilterLink, ptr %31, i32 0, i32 7
  %33 = load i32, ptr %32, align 4, !tbaa !55
  %34 = load ptr, ptr %3, align 8, !tbaa !31
  %35 = getelementptr inbounds nuw %struct.AVFilterLink, ptr %34, i32 0, i32 7
  store i32 %33, ptr %35, align 4, !tbaa !55
  %36 = load ptr, ptr %4, align 8, !tbaa !4
  %37 = getelementptr inbounds nuw %struct.AVFilterContext, ptr %36, i32 0, i32 4
  %38 = load ptr, ptr %37, align 8, !tbaa !73
  %39 = getelementptr inbounds ptr, ptr %38, i64 0
  %40 = load ptr, ptr %39, align 8, !tbaa !31
  %41 = getelementptr inbounds nuw %struct.AVFilterLink, ptr %40, i32 0, i32 5
  %42 = load i32, ptr %41, align 4, !tbaa !72
  %43 = load ptr, ptr %3, align 8, !tbaa !31
  %44 = getelementptr inbounds nuw %struct.AVFilterLink, ptr %43, i32 0, i32 5
  store i32 %42, ptr %44, align 4, !tbaa !72
  %45 = load ptr, ptr %5, align 8, !tbaa !22
  %46 = getelementptr inbounds nuw %struct.TiltandshiftContext, ptr %45, i32 0, i32 3
  %47 = load i32, ptr %46, align 8, !tbaa !56
  %48 = icmp ne i32 %47, 0
  br i1 %48, label %49, label %60

49:                                               ; preds = %1
  %50 = load ptr, ptr %5, align 8, !tbaa !22
  %51 = getelementptr inbounds nuw %struct.TiltandshiftContext, ptr %50, i32 0, i32 5
  %52 = load i32, ptr %51, align 8, !tbaa !57
  %53 = icmp ne i32 %52, 0
  br i1 %53, label %60, label %54

54:                                               ; preds = %49
  %55 = load ptr, ptr %3, align 8, !tbaa !31
  %56 = getelementptr inbounds nuw %struct.AVFilterLink, ptr %55, i32 0, i32 6
  %57 = load i32, ptr %56, align 8, !tbaa !47
  %58 = load ptr, ptr %5, align 8, !tbaa !22
  %59 = getelementptr inbounds nuw %struct.TiltandshiftContext, ptr %58, i32 0, i32 5
  store i32 %57, ptr %59, align 8, !tbaa !57
  br label %60

60:                                               ; preds = %54, %49, %1
  %61 = load ptr, ptr %5, align 8, !tbaa !22
  %62 = getelementptr inbounds nuw %struct.TiltandshiftContext, ptr %61, i32 0, i32 3
  %63 = load i32, ptr %62, align 8, !tbaa !56
  %64 = icmp eq i32 %63, 2
  br i1 %64, label %70, label %65

65:                                               ; preds = %60
  %66 = load ptr, ptr %5, align 8, !tbaa !22
  %67 = getelementptr inbounds nuw %struct.TiltandshiftContext, ptr %66, i32 0, i32 4
  %68 = load i32, ptr %67, align 4, !tbaa !62
  %69 = icmp ne i32 %68, 1
  br i1 %69, label %70, label %199

70:                                               ; preds = %65, %60
  call void @llvm.lifetime.start.p0(i64 4, ptr %6) #6
  call void @llvm.lifetime.start.p0(i64 4, ptr %7) #6
  call void @llvm.lifetime.start.p0(i64 4, ptr %8) #6
  call void @llvm.lifetime.start.p0(i64 4, ptr %9) #6
  call void @llvm.memcpy.p0.p0.i64(ptr align 1 %9, ptr align 1 @__const.config_props.black_data, i64 4, i1 false)
  call void @llvm.lifetime.start.p0(i64 8, ptr %10) #6
  %71 = load ptr, ptr %3, align 8, !tbaa !31
  %72 = getelementptr inbounds nuw %struct.AVFilterLink, ptr %71, i32 0, i32 5
  %73 = load i32, ptr %72, align 4, !tbaa !72
  %74 = call ptr @av_pix_fmt_desc_get(i32 noundef %73)
  store ptr %74, ptr %10, align 8, !tbaa !75
  %75 = load ptr, ptr %10, align 8, !tbaa !75
  %76 = icmp ne ptr %75, null
  br i1 %76, label %78, label %77

77:                                               ; preds = %70
  store i32 -558323010, ptr %2, align 4
  store i32 1, ptr %11, align 4
  br label %196

78:                                               ; preds = %70
  %79 = load ptr, ptr %3, align 8, !tbaa !31
  %80 = getelementptr inbounds nuw %struct.AVFilterLink, ptr %79, i32 0, i32 5
  %81 = load i32, ptr %80, align 4, !tbaa !72
  %82 = icmp eq i32 %81, 12
  br i1 %82, label %103, label %83

83:                                               ; preds = %78
  %84 = load ptr, ptr %3, align 8, !tbaa !31
  %85 = getelementptr inbounds nuw %struct.AVFilterLink, ptr %84, i32 0, i32 5
  %86 = load i32, ptr %85, align 4, !tbaa !72
  %87 = icmp eq i32 %86, 13
  br i1 %87, label %103, label %88

88:                                               ; preds = %83
  %89 = load ptr, ptr %3, align 8, !tbaa !31
  %90 = getelementptr inbounds nuw %struct.AVFilterLink, ptr %89, i32 0, i32 5
  %91 = load i32, ptr %90, align 4, !tbaa !72
  %92 = icmp eq i32 %91, 14
  br i1 %92, label %103, label %93

93:                                               ; preds = %88
  %94 = load ptr, ptr %3, align 8, !tbaa !31
  %95 = getelementptr inbounds nuw %struct.AVFilterLink, ptr %94, i32 0, i32 5
  %96 = load i32, ptr %95, align 4, !tbaa !72
  %97 = icmp eq i32 %96, 32
  br i1 %97, label %103, label %98

98:                                               ; preds = %93
  %99 = load ptr, ptr %3, align 8, !tbaa !31
  %100 = getelementptr inbounds nuw %struct.AVFilterLink, ptr %99, i32 0, i32 10
  %101 = load i32, ptr %100, align 4, !tbaa !76
  %102 = icmp eq i32 %101, 2
  br i1 %102, label %103, label %106

103:                                              ; preds = %98, %93, %88, %83, %78
  %104 = getelementptr inbounds [4 x i8], ptr %9, i64 0, i64 3
  store i8 0, ptr %104, align 1, !tbaa !77
  %105 = getelementptr inbounds [4 x i8], ptr %9, i64 0, i64 0
  store i8 0, ptr %105, align 1, !tbaa !77
  br label %106

106:                                              ; preds = %103, %98
  %107 = load ptr, ptr %5, align 8, !tbaa !22
  %108 = getelementptr inbounds nuw %struct.TiltandshiftContext, ptr %107, i32 0, i32 7
  %109 = getelementptr inbounds [4 x ptr], ptr %108, i64 0, i64 0
  %110 = load ptr, ptr %5, align 8, !tbaa !22
  %111 = getelementptr inbounds nuw %struct.TiltandshiftContext, ptr %110, i32 0, i32 8
  %112 = getelementptr inbounds [4 x i32], ptr %111, i64 0, i64 0
  %113 = load ptr, ptr %3, align 8, !tbaa !31
  %114 = getelementptr inbounds nuw %struct.AVFilterLink, ptr %113, i32 0, i32 7
  %115 = load i32, ptr %114, align 4, !tbaa !55
  %116 = load ptr, ptr %3, align 8, !tbaa !31
  %117 = getelementptr inbounds nuw %struct.AVFilterLink, ptr %116, i32 0, i32 5
  %118 = load i32, ptr %117, align 4, !tbaa !72
  %119 = call i32 @av_image_alloc(ptr noundef %109, ptr noundef %112, i32 noundef 1, i32 noundef %115, i32 noundef %118, i32 noundef 1)
  store i32 %119, ptr %8, align 4, !tbaa !44
  %120 = load i32, ptr %8, align 4, !tbaa !44
  %121 = icmp slt i32 %120, 0
  br i1 %121, label %122, label %124

122:                                              ; preds = %106
  %123 = load i32, ptr %8, align 4, !tbaa !44
  store i32 %123, ptr %2, align 4
  store i32 1, ptr %11, align 4
  br label %196

124:                                              ; preds = %106
  store i32 0, ptr %6, align 4, !tbaa !44
  br label %125

125:                                              ; preds = %191, %124
  %126 = load i32, ptr %6, align 4, !tbaa !44
  %127 = load ptr, ptr %10, align 8, !tbaa !75
  %128 = getelementptr inbounds nuw %struct.AVPixFmtDescriptor, ptr %127, i32 0, i32 1
  %129 = load i8, ptr %128, align 8, !tbaa !78
  %130 = zext i8 %129 to i32
  %131 = icmp sgt i32 %130, 4
  br i1 %131, label %132, label %133

132:                                              ; preds = %125
  br label %138

133:                                              ; preds = %125
  %134 = load ptr, ptr %10, align 8, !tbaa !75
  %135 = getelementptr inbounds nuw %struct.AVPixFmtDescriptor, ptr %134, i32 0, i32 1
  %136 = load i8, ptr %135, align 8, !tbaa !78
  %137 = zext i8 %136 to i32
  br label %138

138:                                              ; preds = %133, %132
  %139 = phi i32 [ 4, %132 ], [ %137, %133 ]
  %140 = icmp slt i32 %126, %139
  br i1 %140, label %141, label %194

141:                                              ; preds = %138
  store i32 0, ptr %7, align 4, !tbaa !44
  br label %142

142:                                              ; preds = %187, %141
  %143 = load i32, ptr %7, align 4, !tbaa !44
  %144 = load i32, ptr %6, align 4, !tbaa !44
  %145 = icmp ne i32 %144, 0
  br i1 %145, label %150, label %146

146:                                              ; preds = %142
  %147 = load ptr, ptr %3, align 8, !tbaa !31
  %148 = getelementptr inbounds nuw %struct.AVFilterLink, ptr %147, i32 0, i32 7
  %149 = load i32, ptr %148, align 4, !tbaa !55
  br label %161

150:                                              ; preds = %142
  %151 = load ptr, ptr %3, align 8, !tbaa !31
  %152 = getelementptr inbounds nuw %struct.AVFilterLink, ptr %151, i32 0, i32 7
  %153 = load i32, ptr %152, align 4, !tbaa !55
  %154 = sub nsw i32 0, %153
  %155 = load ptr, ptr %10, align 8, !tbaa !75
  %156 = getelementptr inbounds nuw %struct.AVPixFmtDescriptor, ptr %155, i32 0, i32 3
  %157 = load i8, ptr %156, align 2, !tbaa !79
  %158 = zext i8 %157 to i32
  %159 = ashr i32 %154, %158
  %160 = sub nsw i32 0, %159
  br label %161

161:                                              ; preds = %150, %146
  %162 = phi i32 [ %149, %146 ], [ %160, %150 ]
  %163 = icmp slt i32 %143, %162
  br i1 %163, label %164, label %190

164:                                              ; preds = %161
  %165 = load ptr, ptr %5, align 8, !tbaa !22
  %166 = getelementptr inbounds nuw %struct.TiltandshiftContext, ptr %165, i32 0, i32 7
  %167 = load i32, ptr %6, align 4, !tbaa !44
  %168 = sext i32 %167 to i64
  %169 = getelementptr inbounds [4 x ptr], ptr %166, i64 0, i64 %168
  %170 = load ptr, ptr %169, align 8, !tbaa !68
  %171 = load i32, ptr %7, align 4, !tbaa !44
  %172 = load ptr, ptr %5, align 8, !tbaa !22
  %173 = getelementptr inbounds nuw %struct.TiltandshiftContext, ptr %172, i32 0, i32 8
  %174 = load i32, ptr %6, align 4, !tbaa !44
  %175 = sext i32 %174 to i64
  %176 = getelementptr inbounds [4 x i32], ptr %173, i64 0, i64 %175
  %177 = load i32, ptr %176, align 4, !tbaa !44
  %178 = mul nsw i32 %171, %177
  %179 = sext i32 %178 to i64
  %180 = getelementptr inbounds i8, ptr %170, i64 %179
  %181 = load i32, ptr %6, align 4, !tbaa !44
  %182 = sext i32 %181 to i64
  %183 = getelementptr inbounds [4 x i8], ptr %9, i64 0, i64 %182
  %184 = load i8, ptr %183, align 1, !tbaa !77
  %185 = zext i8 %184 to i32
  %186 = trunc i32 %185 to i8
  call void @llvm.memset.p0.i64(ptr align 1 %180, i8 %186, i64 1, i1 false)
  br label %187

187:                                              ; preds = %164
  %188 = load i32, ptr %7, align 4, !tbaa !44
  %189 = add nsw i32 %188, 1
  store i32 %189, ptr %7, align 4, !tbaa !44
  br label %142, !llvm.loop !80

190:                                              ; preds = %161
  br label %191

191:                                              ; preds = %190
  %192 = load i32, ptr %6, align 4, !tbaa !44
  %193 = add nsw i32 %192, 1
  store i32 %193, ptr %6, align 4, !tbaa !44
  br label %125, !llvm.loop !81

194:                                              ; preds = %138
  %195 = load ptr, ptr %4, align 8, !tbaa !4
  call void (ptr, i32, ptr, ...) @av_log(ptr noundef %195, i32 noundef 40, ptr noundef @.str.6)
  store i32 0, ptr %11, align 4
  br label %196

196:                                              ; preds = %194, %122, %77
  call void @llvm.lifetime.end.p0(i64 8, ptr %10) #6
  call void @llvm.lifetime.end.p0(i64 4, ptr %9) #6
  call void @llvm.lifetime.end.p0(i64 4, ptr %8) #6
  call void @llvm.lifetime.end.p0(i64 4, ptr %7) #6
  call void @llvm.lifetime.end.p0(i64 4, ptr %6) #6
  %197 = load i32, ptr %11, align 4
  switch i32 %197, label %212 [
    i32 0, label %198
  ]

198:                                              ; preds = %196
  br label %199

199:                                              ; preds = %198, %65
  %200 = load ptr, ptr %3, align 8, !tbaa !31
  %201 = getelementptr inbounds nuw %struct.AVFilterLink, ptr %200, i32 0, i32 5
  %202 = load i32, ptr %201, align 4, !tbaa !72
  %203 = call ptr @av_pix_fmt_desc_get(i32 noundef %202)
  %204 = load ptr, ptr %5, align 8, !tbaa !22
  %205 = getelementptr inbounds nuw %struct.TiltandshiftContext, ptr %204, i32 0, i32 12
  store ptr %203, ptr %205, align 8, !tbaa !69
  %206 = load ptr, ptr %5, align 8, !tbaa !22
  %207 = getelementptr inbounds nuw %struct.TiltandshiftContext, ptr %206, i32 0, i32 12
  %208 = load ptr, ptr %207, align 8, !tbaa !69
  %209 = icmp ne ptr %208, null
  br i1 %209, label %211, label %210

210:                                              ; preds = %199
  store i32 -558323010, ptr %2, align 4
  store i32 1, ptr %11, align 4
  br label %212

211:                                              ; preds = %199
  store i32 0, ptr %2, align 4
  store i32 1, ptr %11, align 4
  br label %212

212:                                              ; preds = %211, %210, %196
  call void @llvm.lifetime.end.p0(i64 8, ptr %5) #6
  call void @llvm.lifetime.end.p0(i64 8, ptr %4) #6
  %213 = load i32, ptr %2, align 4
  ret i32 %213
}