; Function Attrs: nounwind uwtable
define internal range(i32 -2147483648, 1) i32 @config_props(ptr noundef captures(none) initializes((36, 48)) %0) #1 {
  %2 = alloca [4 x i8], align 4
  %3 = load ptr, ptr %0, align 8, !tbaa !39
  %4 = getelementptr inbounds nuw i8, ptr %3, i64 72
  %5 = load ptr, ptr %4, align 8, !tbaa !4
  %6 = getelementptr inbounds nuw i8, ptr %3, i64 32
  %7 = load ptr, ptr %6, align 8, !tbaa !66
  %8 = load ptr, ptr %7, align 8, !tbaa !37
  %9 = getelementptr inbounds nuw i8, ptr %8, i64 40
  %10 = load i32, ptr %9, align 8, !tbaa !48
  %11 = getelementptr inbounds nuw i8, ptr %0, i64 40
  store i32 %10, ptr %11, align 8, !tbaa !48
  %12 = getelementptr inbounds nuw i8, ptr %8, i64 44
  %13 = load i32, ptr %12, align 4, !tbaa !50
  %14 = getelementptr inbounds nuw i8, ptr %0, i64 44
  store i32 %13, ptr %14, align 4, !tbaa !50
  %15 = getelementptr inbounds nuw i8, ptr %8, i64 36
  %16 = load i32, ptr %15, align 4, !tbaa !58
  %17 = getelementptr inbounds nuw i8, ptr %0, i64 36
  store i32 %16, ptr %17, align 4, !tbaa !58
  %18 = getelementptr inbounds nuw i8, ptr %5, i64 16
  %19 = load i32, ptr %18, align 8, !tbaa !52
  %.not = icmp eq i32 %19, 0
  br i1 %.not, label %.thread, label %20

20:                                               ; preds = %1
  %21 = getelementptr inbounds nuw i8, ptr %5, i64 24
  %22 = load i32, ptr %21, align 8, !tbaa !53
  %.not55 = icmp eq i32 %22, 0
  br i1 %.not55, label %23, label %24

23:                                               ; preds = %20
  store i32 %10, ptr %21, align 8, !tbaa !53
  br label %24

24:                                               ; preds = %23, %20
  %25 = icmp eq i32 %19, 2
  br i1 %25, label %28, label %.thread

.thread:                                          ; preds = %1, %24
  %26 = getelementptr inbounds nuw i8, ptr %5, i64 20
  %27 = load i32, ptr %26, align 4, !tbaa !63
  %.not56 = icmp eq i32 %27, 1
  br i1 %.not56, label %80, label %28

28:                                               ; preds = %.thread, %24
  call void @llvm.lifetime.start.p0(i64 4, ptr nonnull %2) #6
  store i32 276856848, ptr %2, align 4
  %29 = tail call ptr @av_pix_fmt_desc_get(i32 noundef %16) #6
  %.not57 = icmp eq ptr %29, null
  br i1 %.not57, label %.thread60, label %30

30:                                               ; preds = %28
  %31 = load i32, ptr %17, align 4, !tbaa !58
  switch i32 %31, label %32 [
    i32 12, label %36
    i32 13, label %36
    i32 14, label %36
    i32 32, label %36
  ]

32:                                               ; preds = %30
  %33 = getelementptr inbounds nuw i8, ptr %0, i64 60
  %34 = load i32, ptr %33, align 4, !tbaa !68
  %35 = icmp eq i32 %34, 2
  br i1 %35, label %36, label %38

36:                                               ; preds = %30, %30, %30, %30, %32
  %37 = getelementptr inbounds nuw i8, ptr %2, i64 3
  store i8 0, ptr %37, align 1, !tbaa !69
  store i8 0, ptr %2, align 4, !tbaa !69
  br label %38

38:                                               ; preds = %36, %32
  %39 = getelementptr inbounds nuw i8, ptr %5, i64 32
  %40 = getelementptr inbounds nuw i8, ptr %5, i64 64
  %41 = load i32, ptr %14, align 4, !tbaa !50
  %42 = tail call i32 @av_image_alloc(ptr noundef nonnull %39, ptr noundef nonnull %40, i32 noundef 1, i32 noundef %41, i32 noundef %31, i32 noundef 1) #6
  %43 = icmp slt i32 %42, 0
  br i1 %43, label %.thread60, label %.preheader63

.preheader63:                                     ; preds = %38
  %44 = getelementptr inbounds nuw i8, ptr %29, i64 8
  %45 = load i8, ptr %44, align 8, !tbaa !70
  %.not70 = icmp eq i8 %45, 0
  br i1 %.not70, label %._crit_edge, label %.preheader.lr.ph

.preheader.lr.ph:                                 ; preds = %.preheader63
  %46 = getelementptr inbounds nuw i8, ptr %29, i64 10
  br label %.preheader

.preheader:                                       ; preds = %.preheader.lr.ph, %.split.us
  %indvars.iv = phi i64 [ 0, %.preheader.lr.ph ], [ %indvars.iv.next, %.split.us ]
  %.not58 = icmp eq i64 %indvars.iv, 0
  %47 = getelementptr inbounds nuw [4 x ptr], ptr %39, i64 0, i64 %indvars.iv
  %48 = getelementptr inbounds nuw [4 x i32], ptr %40, i64 0, i64 %indvars.iv
  %49 = getelementptr inbounds nuw [4 x i8], ptr %2, i64 0, i64 %indvars.iv
  %50 = load i32, ptr %14, align 4, !tbaa !50
  %51 = icmp sgt i32 %50, 0
  br i1 %.not58, label %.preheader.split.us, label %.preheader.split

.preheader.split.us:                              ; preds = %.preheader
  br i1 %51, label %.lr.ph66, label %.split.us

.lr.ph66:                                         ; preds = %.preheader.split.us
  %52 = load i8, ptr %49, align 1, !tbaa !69
  br label %53

53:                                               ; preds = %.lr.ph66, %53
  %.050.us65 = phi i32 [ 0, %.lr.ph66 ], [ %59, %53 ]
  %54 = load ptr, ptr %47, align 8, !tbaa !54
  %55 = load i32, ptr %48, align 4, !tbaa !71
  %56 = mul nsw i32 %55, %.050.us65
  %57 = sext i32 %56 to i64
  %58 = getelementptr inbounds i8, ptr %54, i64 %57
  tail call void @llvm.memset.p0.i64(ptr noundef nonnull align 1 dereferenceable(1) %58, i8 %52, i64 1, i1 false)
  %59 = add nuw nsw i32 %.050.us65, 1
  %60 = load i32, ptr %14, align 4, !tbaa !50
  %61 = icmp slt i32 %59, %60
  br i1 %61, label %53, label %.split.us, !llvm.loop !72

.preheader.split:                                 ; preds = %.preheader
  br i1 %51, label %.lr.ph, label %.split.us

.lr.ph:                                           ; preds = %.preheader.split
  %62 = load i8, ptr %49, align 1, !tbaa !69
  br label %63

63:                                               ; preds = %.lr.ph, %63
  %.05064 = phi i32 [ 0, %.lr.ph ], [ %69, %63 ]
  %64 = load ptr, ptr %47, align 8, !tbaa !54
  %65 = load i32, ptr %48, align 4, !tbaa !71
  %66 = mul nsw i32 %65, %.05064
  %67 = sext i32 %66 to i64
  %68 = getelementptr inbounds i8, ptr %64, i64 %67
  tail call void @llvm.memset.p0.i64(ptr noundef nonnull align 1 dereferenceable(1) %68, i8 %62, i64 1, i1 false)
  %69 = add nuw nsw i32 %.05064, 1
  %70 = load i32, ptr %14, align 4, !tbaa !50
  %71 = sub nsw i32 0, %70
  %72 = load i8, ptr %46, align 2, !tbaa !73
  %73 = zext nneg i8 %72 to i32
  %74 = ashr i32 %71, %73
  %75 = sub nsw i32 0, %74
  %76 = icmp slt i32 %69, %75
  br i1 %76, label %63, label %.split.us, !llvm.loop !72

.split.us:                                        ; preds = %63, %53, %.preheader.split, %.preheader.split.us
  %indvars.iv.next = add nuw nsw i64 %indvars.iv, 1
  %77 = load i8, ptr %44, align 8, !tbaa !70
  %narrow = tail call i8 @llvm.umin.i8(i8 %77, i8 4)
  %78 = zext nneg i8 %narrow to i64
  %79 = icmp samesign ult i64 %indvars.iv.next, %78
  br i1 %79, label %.preheader, label %._crit_edge, !llvm.loop !74

.thread60:                                        ; preds = %28, %38
  %.048.ph = phi i32 [ %42, %38 ], [ -558323010, %28 ]
  call void @llvm.lifetime.end.p0(i64 4, ptr nonnull %2) #6
  br label %84

._crit_edge:                                      ; preds = %.split.us, %.preheader63
  tail call void (ptr, i32, ptr, ...) @av_log(ptr noundef %3, i32 noundef 40, ptr noundef nonnull @.str.6) #6
  call void @llvm.lifetime.end.p0(i64 4, ptr nonnull %2) #6
  %.pre = load i32, ptr %17, align 4, !tbaa !58
  br label %80

80:                                               ; preds = %._crit_edge, %.thread
  %81 = phi i32 [ %.pre, %._crit_edge ], [ %16, %.thread ]
  %82 = tail call ptr @av_pix_fmt_desc_get(i32 noundef %81) #6
  %83 = getelementptr inbounds nuw i8, ptr %5, i64 104
  store ptr %82, ptr %83, align 8, !tbaa !55
  %.not59 = icmp eq ptr %82, null
  %. = select i1 %.not59, i32 -558323010, i32 0
  br label %84

84:                                               ; preds = %.thread60, %80
  %.1 = phi i32 [ %., %80 ], [ %.048.ph, %.thread60 ]
  ret i32 %.1
}